target datalayout = "e-m:e-p270:32:32-p271:32:32-p272:64:64-i64:64-i128:128-f80:128-n8:16:32:64-S128"
target triple = "x86_64-pc-linux-gnu"

%struct.object_id = type { [32 x i8], i32 }
%struct.git_attr = type { i32, [0 x i8] }
%struct.attr_check = type { i32, i32, ptr, i32, ptr, ptr }
%struct.attr_check_item = type { ptr, ptr }
%struct.all_attrs_item = type { ptr, ptr, ptr }
%struct.hashmap = type { ptr, ptr, ptr, i32, i32, i32, i32, i8 }
%struct.hashmap_entry = type { ptr, i32 }
%struct.stat = type { i64, i64, i64, i32, i32, i32, i32, i64, i64, i64, i64, %struct.timespec, %struct.timespec, %struct.timespec, [3 x i64] }
%struct.timespec = type { i64, i64 }
%struct.index_state = type { ptr, i32, i32, i32, i32, ptr, ptr, ptr, %struct.cache_time, i8, i32, %struct.hashmap, %struct.hashmap, %struct.object_id, ptr, ptr, ptr, ptr, ptr, ptr, ptr }
%struct.cache_time = type { i32, i32 }
%struct.cache_entry = type { %struct.hashmap_entry, %struct.stat_data, i32, i32, i32, i32, i32, %struct.object_id, [0 x i8] }
%struct.stat_data = type { %struct.cache_time, %struct.cache_time, i32, i32, i32, i32, i32 }
%struct.anon = type { i32, [7 x i8] }

@.str.4 = private unnamed_addr constant [7 x i8] c"attr.c\00", align 1
@direction = internal global i32 0, align 4
@git_attr__unknown = internal constant [17 x i8] c"(builtin)unknown\00", align 16
@the_repository = external global ptr, align 8
@compute_builtin_attr.object_mode_attr = internal global ptr null, align 8
@.str.37 = private unnamed_addr constant [19 x i8] c"builtin_objectmode\00", align 1
@.str.38 = private unnamed_addr constant [20 x i8] c"unable to stat '%s'\00", align 1
@.str.39 = private unnamed_addr constant [5 x i8] c"HEAD\00", align 1
@.str.40 = private unnamed_addr constant [5 x i8] c"%06o\00", align 1
@.str.41 = private unnamed_addr constant [21 x i8] c"Unsupported mode 0%o\00", align 1

; Function Attrs: nounwind uwtable
define internal ptr @interned_mode_string(i32 noundef %0) #0 {
  %2 = alloca i32, align 4
  %3 = alloca i32, align 4
  store i32 %0, ptr %2, align 4, !tbaa !13
  call void @llvm.lifetime.start.p0(i64 4, ptr %3) #11
  store i32 0, ptr %3, align 4, !tbaa !13
  br label %4

4:                                                ; preds = %39, %1
  %5 = load i32, ptr %3, align 4, !tbaa !13
  %6 = sext i32 %5 to i64
  %7 = icmp ult i64 %6, 5
  br i1 %7, label %8, label %42

8:                                                ; preds = %4
  %9 = load i32, ptr %3, align 4, !tbaa !13
  %10 = sext i32 %9 to i64
  %11 = getelementptr inbounds [5 x %struct.anon], ptr @interned_mode_string.mode_string, i64 0, i64 %10
  %12 = getelementptr inbounds nuw %struct.anon, ptr %11, i32 0, i32 0
  %13 = load i32, ptr %12, align 4, !tbaa !156
  %14 = load i32, ptr %2, align 4, !tbaa !13
  %15 = icmp ne i32 %13, %14
  br i1 %15, label %16, label %17

16:                                               ; preds = %8
  br label %39

17:                                               ; preds = %8
  %18 = load i32, ptr %3, align 4, !tbaa !13
  %19 = sext i32 %18 to i64
  %20 = getelementptr inbounds [5 x %struct.anon], ptr @interned_mode_string.mode_string, i64 0, i64 %19
  %21 = getelementptr inbounds nuw %struct.anon, ptr %20, i32 0, i32 1
  %22 = getelementptr inbounds [7 x i8], ptr %21, i64 0, i64 0
  %23 = load i8, ptr %22, align 4, !tbaa !17
  %24 = icmp ne i8 %23, 0
  br i1 %24, label %33, label %25

25:                                               ; preds = %17
  %26 = load i32, ptr %3, align 4, !tbaa !13
  %27 = sext i32 %26 to i64
  %28 = getelementptr inbounds [5 x %struct.anon], ptr @interned_mode_string.mode_string, i64 0, i64 %27
  %29 = getelementptr inbounds nuw %struct.anon, ptr %28, i32 0, i32 1
  %30 = getelementptr inbounds [7 x i8], ptr %29, i64 0, i64 0
  %31 = load i32, ptr %2, align 4, !tbaa !13
  %32 = call i32 (ptr, i64, ptr, ...) @snprintf(ptr noundef %30, i64 noundef 7, ptr noundef @.str.40, i32 noundef %31) #11
  br label %33

33:                                               ; preds = %25, %17
  %34 = load i32, ptr %3, align 4, !tbaa !13
  %35 = sext i32 %34 to i64
  %36 = getelementptr inbounds [5 x %struct.anon], ptr @interned_mode_string.mode_string, i64 0, i64 %35
  %37 = getelementptr inbounds nuw %struct.anon, ptr %36, i32 0, i32 1
  %38 = getelementptr inbounds [7 x i8], ptr %37, i64 0, i64 0
  call void @llvm.lifetime.end.p0(i64 4, ptr %3) #11
  ret ptr %38

39:                                               ; preds = %16
  %40 = load i32, ptr %3, align 4, !tbaa !13
  %41 = add nsw i32 %40, 1
  store i32 %41, ptr %3, align 4, !tbaa !13
  br label %4, !llvm.loop !158

42:                                               ; preds = %4
  %43 = load i32, ptr %2, align 4, !tbaa !13
  call void (ptr, i32, ptr, ...) @BUG_fl(ptr noundef @.str.4, i32 noundef 1248, ptr noundef @.str.41, i32 noundef %43) #12
  unreachable
}

; Function Attrs: inlinehint nounwind uwtable
define internal i32 @canon_mode(i32 noundef %0) #5 {
  %2 = alloca i32, align 4
  %3 = alloca i32, align 4
  store i32 %0, ptr %3, align 4, !tbaa !13
  %4 = load i32, ptr %3, align 4, !tbaa !13
  %5 = and i32 %4, 61440
  %6 = icmp eq i32 %5, 32768
  br i1 %6, label %7, label %13

7:                                                ; preds = %1
  %8 = load i32, ptr %3, align 4, !tbaa !13
  %9 = and i32 %8, 64
  %10 = icmp ne i32 %9, 0
  %11 = select i1 %10, i32 493, i32 420
  %12 = or i32 32768, %11
  store i32 %12, ptr %2, align 4
  br label %24

13:                                               ; preds = %1
  %14 = load i32, ptr %3, align 4, !tbaa !13
  %15 = and i32 %14, 61440
  %16 = icmp eq i32 %15, 40960
  br i1 %16, label %17, label %18

17:                                               ; preds = %13
  store i32 40960, ptr %2, align 4
  br label %24

18:                                               ; preds = %13
  %19 = load i32, ptr %3, align 4, !tbaa !13
  %20 = and i32 %19, 61440
  %21 = icmp eq i32 %20, 16384
  br i1 %21, label %22, label %23

22:                                               ; preds = %18
  store i32 16384, ptr %2, align 4
  br label %24

23:                                               ; preds = %18
  store i32 57344, ptr %2, align 4
  br label %24

24:                                               ; preds = %23, %22, %17, %7
  %25 = load i32, ptr %2, align 4
  ret i32 %25
}

; Function Attrs: nounwind uwtable
define internal ptr @builtin_object_mode_attr(ptr noundef %0, ptr noundef %1) #0 {
  %3 = alloca ptr, align 8
  %4 = alloca ptr, align 8
  %5 = alloca ptr, align 8
  %6 = alloca i32, align 4
  %7 = alloca %struct.object_id, align 4
  %8 = alloca %struct.stat, align 8
  %9 = alloca i32, align 4
  %10 = alloca i32, align 4
  %11 = alloca i32, align 4
  store ptr %0, ptr %4, align 8, !tbaa !64
  store ptr %1, ptr %5, align 8, !tbaa !9
  call void @llvm.lifetime.start.p0(i64 4, ptr %6) #11
  %12 = load i32, ptr @direction, align 4, !tbaa !13
  %13 = icmp eq i32 %12, 0
  br i1 %13, label %14, label %69

14:                                               ; preds = %2
  call void @llvm.lifetime.start.p0(i64 36, ptr %7) #11
  call void @llvm.lifetime.start.p0(i64 144, ptr %8) #11
  %15 = load ptr, ptr %5, align 8, !tbaa !9
  %16 = call i32 @lstat64(ptr noundef %15, ptr noundef %8) #11
  %17 = icmp ne i32 %16, 0
  br i1 %17, label %18, label %21

18:                                               ; preds = %14
  %19 = call ptr @_(ptr noundef @.str.38)
  %20 = load ptr, ptr %5, align 8, !tbaa !9
  call void (ptr, ...) @die_errno(ptr noundef %19, ptr noundef %20) #12
  unreachable

21:                                               ; preds = %14
  %22 = getelementptr inbounds nuw %struct.stat, ptr %8, i32 0, i32 3
  %23 = load i32, ptr %22, align 8, !tbaa !155
  %24 = call i32 @canon_mode(i32 noundef %23)
  store i32 %24, ptr %6, align 4, !tbaa !13
  %25 = load i32, ptr %6, align 4, !tbaa !13
  %26 = and i32 %25, 61440
  %27 = icmp eq i32 %26, 16384
  br i1 %27, label %28, label %68

28:                                               ; preds = %21
  call void @llvm.lifetime.start.p0(i64 4, ptr %9) #11
  %29 = load ptr, ptr %4, align 8, !tbaa !64
  %30 = load ptr, ptr %5, align 8, !tbaa !9
  %31 = load ptr, ptr %5, align 8, !tbaa !9
  %32 = call i64 @strlen(ptr noundef %31) #10
  %33 = trunc i64 %32 to i32
  %34 = call i32 @index_name_pos(ptr noundef %29, ptr noundef %30, i32 noundef %33)
  store i32 %34, ptr %9, align 4, !tbaa !13
  %35 = load i32, ptr %9, align 4, !tbaa !13
  %36 = icmp sge i32 %35, 0
  br i1 %36, label %37, label %60

37:                                               ; preds = %28
  %38 = load ptr, ptr %4, align 8, !tbaa !64
  %39 = getelementptr inbounds nuw %struct.index_state, ptr %38, i32 0, i32 0
  %40 = load ptr, ptr %39, align 8, !tbaa !128
  %41 = load i32, ptr %9, align 4, !tbaa !13
  %42 = sext i32 %41 to i64
  %43 = getelementptr inbounds ptr, ptr %40, i64 %42
  %44 = load ptr, ptr %43, align 8, !tbaa !141
  %45 = getelementptr inbounds nuw %struct.cache_entry, ptr %44, i32 0, i32 2
  %46 = load i32, ptr %45, align 4, !tbaa !13
  %47 = and i32 %46, 61440
  %48 = icmp eq i32 %47, 57344
  br i1 %48, label %49, label %59

49:                                               ; preds = %37
  %50 = load ptr, ptr %4, align 8, !tbaa !64
  %51 = getelementptr inbounds nuw %struct.index_state, ptr %50, i32 0, i32 0
  %52 = load ptr, ptr %51, align 8, !tbaa !128
  %53 = load i32, ptr %9, align 4, !tbaa !13
  %54 = sext i32 %53 to i64
  %55 = getelementptr inbounds ptr, ptr %52, i64 %54
  %56 = load ptr, ptr %55, align 8, !tbaa !141
  %57 = getelementptr inbounds nuw %struct.cache_entry, ptr %56, i32 0, i32 2
  %58 = load i32, ptr %57, align 4, !tbaa !13
  store i32 %58, ptr %6, align 4, !tbaa !13
  br label %59

59:                                               ; preds = %49, %37
  br label %67

60:                                               ; preds = %28
  %61 = load ptr, ptr @the_repository, align 8, !tbaa !103
  %62 = load ptr, ptr %5, align 8, !tbaa !9
  %63 = call i32 @repo_resolve_gitlink_ref(ptr noundef %61, ptr noundef %62, ptr noundef @.str.39, ptr noundef %7)
  %64 = icmp eq i32 %63, 0
  br i1 %64, label %65, label %66

65:                                               ; preds = %60
  store i32 57344, ptr %6, align 4, !tbaa !13
  br label %66

66:                                               ; preds = %65, %60
  br label %67

67:                                               ; preds = %66, %59
  call void @llvm.lifetime.end.p0(i64 4, ptr %9) #11
  br label %68

68:                                               ; preds = %67, %21
  call void @llvm.lifetime.end.p0(i64 144, ptr %8) #11
  call void @llvm.lifetime.end.p0(i64 36, ptr %7) #11
  br label %93

69:                                               ; preds = %2
  call void @llvm.lifetime.start.p0(i64 4, ptr %10) #11
  %70 = load ptr, ptr %4, align 8, !tbaa !64
  %71 = load ptr, ptr %5, align 8, !tbaa !9
  %72 = load ptr, ptr %5, align 8, !tbaa !9
  %73 = call i64 @strlen(ptr noundef %72) #10
  %74 = trunc i64 %73 to i32
  %75 = call i32 @index_name_pos(ptr noundef %70, ptr noundef %71, i32 noundef %74)
  store i32 %75, ptr %10, align 4, !tbaa !13
  %76 = load i32, ptr %10, align 4, !tbaa !13
  %77 = icmp sge i32 %76, 0
  br i1 %77, label %78, label %88

78:                                               ; preds = %69
  %79 = load ptr, ptr %4, align 8, !tbaa !64
  %80 = getelementptr inbounds nuw %struct.index_state, ptr %79, i32 0, i32 0
  %81 = load ptr, ptr %80, align 8, !tbaa !128
  %82 = load i32, ptr %10, align 4, !tbaa !13
  %83 = sext i32 %82 to i64
  %84 = getelementptr inbounds ptr, ptr %81, i64 %83
  %85 = load ptr, ptr %84, align 8, !tbaa !141
  %86 = getelementptr inbounds nuw %struct.cache_entry, ptr %85, i32 0, i32 2
  %87 = load i32, ptr %86, align 4, !tbaa !13
  store i32 %87, ptr %6, align 4, !tbaa !13
  br label %89

88:                                               ; preds = %69
  store ptr null, ptr %3, align 8
  store i32 1, ptr %11, align 4
  br label %90

89:                                               ; preds = %78
  store i32 0, ptr %11, align 4
  br label %90

90:                                               ; preds = %89, %88
  call void @llvm.lifetime.end.p0(i64 4, ptr %10) #11
  %91 = load i32, ptr %11, align 4
  switch i32 %91, label %96 [
    i32 0, label %92
  ]

92:                                               ; preds = %90
  br label %93

93:                                               ; preds = %92, %68
  %94 = load i32, ptr %6, align 4, !tbaa !13
  %95 = call ptr @interned_mode_string(i32 noundef %94)
  store ptr %95, ptr %3, align 8
  store i32 1, ptr %11, align 4
  br label %96

96:                                               ; preds = %93, %90
  call void @llvm.lifetime.end.p0(i64 4, ptr %6) #11
  %97 = load ptr, ptr %3, align 8
  ret ptr %97
}

; Function Attrs: nounwind uwtable
define dso_local ptr @git_attr(ptr noundef %0) #0 {
  %2 = alloca ptr, align 8
  store ptr %0, ptr %2, align 8, !tbaa !9
  %3 = load ptr, ptr %2, align 8, !tbaa !9
  %4 = load ptr, ptr %2, align 8, !tbaa !9
  %5 = call i64 @strlen(ptr noundef %4) #10
  %6 = call ptr @git_attr_internal(ptr noundef %3, i64 noundef %5)
  ret ptr %6
}

; Function Attrs: nounwind uwtable
define internal ptr @compute_builtin_attr(ptr noundef %0, ptr noundef %1, ptr noundef %2) #0 {
  %4 = alloca ptr, align 8
  %5 = alloca ptr, align 8
  %6 = alloca ptr, align 8
  %7 = alloca ptr, align 8
  store ptr %0, ptr %5, align 8, !tbaa !64
  store ptr %1, ptr %6, align 8, !tbaa !9
  store ptr %2, ptr %7, align 8, !tbaa !4
  %8 = load ptr, ptr @compute_builtin_attr.object_mode_attr, align 8, !tbaa !4
  %9 = icmp ne ptr %8, null
  br i1 %9, label %12, label %10

10:                                               ; preds = %3
  %11 = call ptr @git_attr(ptr noundef @.str.37)
  store ptr %11, ptr @compute_builtin_attr.object_mode_attr, align 8, !tbaa !4
  br label %12

12:                                               ; preds = %10, %3
  %13 = load ptr, ptr %7, align 8, !tbaa !4
  %14 = load ptr, ptr @compute_builtin_attr.object_mode_attr, align 8, !tbaa !4
  %15 = icmp eq ptr %13, %14
  br i1 %15, label %16, label %20

16:                                               ; preds = %12
  %17 = load ptr, ptr %5, align 8, !tbaa !64
  %18 = load ptr, ptr %6, align 8, !tbaa !9
  %19 = call ptr @builtin_object_mode_attr(ptr noundef %17, ptr noundef %18)
  store ptr %19, ptr %4, align 8
  br label %21

20:                                               ; preds = %12
  store ptr null, ptr %4, align 8
  br label %21

21:                                               ; preds = %20, %16
  %22 = load ptr, ptr %4, align 8
  ret ptr %22
}

; Function Attrs: nounwind uwtable
define dso_local void @git_check_attr(ptr noundef %0, ptr noundef %1, ptr noundef %2) #0 {
  %4 = alloca ptr, align 8
  %5 = alloca ptr, align 8
  %6 = alloca ptr, align 8
  %7 = alloca i32, align 4
  %8 = alloca ptr, align 8
  %9 = alloca i32, align 4
  %10 = alloca ptr, align 8
  store ptr %0, ptr %4, align 8, !tbaa !64
  store ptr %1, ptr %5, align 8, !tbaa !9
  store ptr %2, ptr %6, align 8, !tbaa !32
  call void @llvm.lifetime.start.p0(i64 4, ptr %7) #11
  call void @llvm.lifetime.start.p0(i64 8, ptr %8) #11
  %11 = call ptr @default_attr_source()
  store ptr %11, ptr %8, align 8, !tbaa !66
  %12 = load ptr, ptr %4, align 8, !tbaa !64
  %13 = load ptr, ptr %8, align 8, !tbaa !66
  %14 = load ptr, ptr %5, align 8, !tbaa !9
  %15 = load ptr, ptr %6, align 8, !tbaa !32
  call void @collect_some_attrs(ptr noundef %12, ptr noundef %13, ptr noundef %14, ptr noundef %15)
  store i32 0, ptr %7, align 4, !tbaa !13
  br label %16

16:                                               ; preds = %64, %3
  %17 = load i32, ptr %7, align 4, !tbaa !13
  %18 = load ptr, ptr %6, align 8, !tbaa !32
  %19 = getelementptr inbounds nuw %struct.attr_check, ptr %18, i32 0, i32 0
  %20 = load i32, ptr %19, align 8, !tbaa !40
  %21 = icmp slt i32 %17, %20
  br i1 %21, label %22, label %67

22:                                               ; preds = %16
  call void @llvm.lifetime.start.p0(i64 4, ptr %9) #11
  %23 = load ptr, ptr %6, align 8, !tbaa !32
  %24 = getelementptr inbounds nuw %struct.attr_check, ptr %23, i32 0, i32 2
  %25 = load ptr, ptr %24, align 8, !tbaa !46
  %26 = load i32, ptr %7, align 4, !tbaa !13
  %27 = sext i32 %26 to i64
  %28 = getelementptr inbounds %struct.attr_check_item, ptr %25, i64 %27
  %29 = getelementptr inbounds nuw %struct.attr_check_item, ptr %28, i32 0, i32 0
  %30 = load ptr, ptr %29, align 8, !tbaa !47
  %31 = getelementptr inbounds nuw %struct.git_attr, ptr %30, i32 0, i32 0
  %32 = load i32, ptr %31, align 4, !tbaa !13
  store i32 %32, ptr %9, align 4, !tbaa !13
  call void @llvm.lifetime.start.p0(i64 8, ptr %10) #11
  %33 = load ptr, ptr %6, align 8, !tbaa !32
  %34 = getelementptr inbounds nuw %struct.attr_check, ptr %33, i32 0, i32 4
  %35 = load ptr, ptr %34, align 8, !tbaa !52
  %36 = load i32, ptr %9, align 4, !tbaa !13
  %37 = zext i32 %36 to i64
  %38 = getelementptr inbounds nuw %struct.all_attrs_item, ptr %35, i64 %37
  %39 = getelementptr inbounds nuw %struct.all_attrs_item, ptr %38, i32 0, i32 1
  %40 = load ptr, ptr %39, align 8, !tbaa !68
  store ptr %40, ptr %10, align 8, !tbaa !9
  %41 = load ptr, ptr %10, align 8, !tbaa !9
  %42 = icmp eq ptr %41, @git_attr__unknown
  br i1 %42, label %43, label %55

43:                                               ; preds = %22
  %44 = load ptr, ptr %4, align 8, !tbaa !64
  %45 = load ptr, ptr %5, align 8, !tbaa !9
  %46 = load ptr, ptr %6, align 8, !tbaa !32
  %47 = getelementptr inbounds nuw %struct.attr_check, ptr %46, i32 0, i32 4
  %48 = load ptr, ptr %47, align 8, !tbaa !52
  %49 = load i32, ptr %9, align 4, !tbaa !13
  %50 = zext i32 %49 to i64
  %51 = getelementptr inbounds nuw %struct.all_attrs_item, ptr %48, i64 %50
  %52 = getelementptr inbounds nuw %struct.all_attrs_item, ptr %51, i32 0, i32 0
  %53 = load ptr, ptr %52, align 8, !tbaa !70
  %54 = call ptr @compute_builtin_attr(ptr noundef %44, ptr noundef %45, ptr noundef %53)
  store ptr %54, ptr %10, align 8, !tbaa !9
  br label %55

55:                                               ; preds = %43, %22
  %56 = load ptr, ptr %10, align 8, !tbaa !9
  %57 = load ptr, ptr %6, align 8, !tbaa !32
  %58 = getelementptr inbounds nuw %struct.attr_check, ptr %57, i32 0, i32 2
  %59 = load ptr, ptr %58, align 8, !tbaa !46
  %60 = load i32, ptr %7, align 4, !tbaa !13
  %61 = sext i32 %60 to i64
  %62 = getelementptr inbounds %struct.attr_check_item, ptr %59, i64 %61
  %63 = getelementptr inbounds nuw %struct.attr_check_item, ptr %62, i32 0, i32 1
  store ptr %56, ptr %63, align 8, !tbaa !71
  call void @llvm.lifetime.end.p0(i64 8, ptr %10) #11
  call void @llvm.lifetime.end.p0(i64 4, ptr %9) #11
  br label %64

64:                                               ; preds = %55
  %65 = load i32, ptr %7, align 4, !tbaa !13
  %66 = add nsw i32 %65, 1
  store i32 %66, ptr %7, align 4, !tbaa !13
  br label %16, !llvm.loop !72

67:                                               ; preds = %16
  call void @llvm.lifetime.end.p0(i64 8, ptr %8) #11
  call void @llvm.lifetime.end.p0(i64 4, ptr %7) #11
  ret void
}