; Function Attrs: nounwind uwtable
define dso_local void @git_check_attr(ptr noundef %0, ptr noundef %1, ptr noundef captures(none) %2) local_unnamed_addr #1 {
  %4 = alloca %struct.object_id, align 4
  %5 = alloca %struct.stat, align 8
  %6 = tail call fastcc ptr @default_attr_source()
  tail call fastcc void @collect_some_attrs(ptr noundef %0, ptr noundef %6, ptr noundef %1, ptr noundef %2)
  %7 = load i32, ptr %2, align 8, !tbaa !45
  %8 = icmp sgt i32 %7, 0
  br i1 %8, label %.lr.ph, label %._crit_edge

.lr.ph:                                           ; preds = %3
  %9 = getelementptr inbounds nuw i8, ptr %2, i64 8
  %10 = getelementptr inbounds nuw i8, ptr %2, i64 24
  %11 = getelementptr inbounds nuw i8, ptr %5, i64 24
  %.pre = load ptr, ptr %9, align 8, !tbaa !51
  br label %12

12:                                               ; preds = %.lr.ph, %compute_builtin_attr.exit
  %13 = phi ptr [ %.pre, %.lr.ph ], [ %83, %compute_builtin_attr.exit ]
  %indvars.iv = phi i64 [ 0, %.lr.ph ], [ %indvars.iv.next, %compute_builtin_attr.exit ]
  %14 = getelementptr inbounds nuw %struct.attr_check_item, ptr %13, i64 %indvars.iv
  %15 = load ptr, ptr %14, align 8, !tbaa !52
  %16 = load i32, ptr %15, align 4, !tbaa !22
  %17 = load ptr, ptr %10, align 8, !tbaa !55
  %18 = zext i32 %16 to i64
  %19 = getelementptr inbounds nuw %struct.all_attrs_item, ptr %17, i64 %18
  %20 = getelementptr inbounds nuw i8, ptr %19, i64 8
  %21 = load ptr, ptr %20, align 8, !tbaa !72
  %22 = icmp eq ptr %21, @git_attr__unknown
  br i1 %22, label %23, label %compute_builtin_attr.exit

23:                                               ; preds = %12
  %24 = load ptr, ptr %19, align 8, !tbaa !74
  %25 = load ptr, ptr @compute_builtin_attr.object_mode_attr, align 8, !tbaa !75
  %.not.i = icmp eq ptr %25, null
  br i1 %.not.i, label %26, label %28

26:                                               ; preds = %23
  %27 = call fastcc ptr @git_attr_internal(ptr noundef nonnull @.str.37, i64 noundef 18)
  store ptr %27, ptr @compute_builtin_attr.object_mode_attr, align 8, !tbaa !75
  br label %28

28:                                               ; preds = %26, %23
  %29 = phi ptr [ %27, %26 ], [ %25, %23 ]
  %30 = icmp eq ptr %24, %29
  br i1 %30, label %31, label %compute_builtin_attr.exit

31:                                               ; preds = %28
  %32 = load i32, ptr @direction, align 4, !tbaa !22
  %33 = icmp eq i32 %32, 0
  br i1 %33, label %34, label %61

34:                                               ; preds = %31
  call void @llvm.lifetime.start.p0(i64 36, ptr nonnull %4) #21
  call void @llvm.lifetime.start.p0(i64 144, ptr nonnull %5) #21
  %35 = call i32 @lstat64(ptr noundef %1, ptr noundef nonnull %5) #21
  %.not.i.i = icmp eq i32 %35, 0
  br i1 %.not.i.i, label %38, label %36

36:                                               ; preds = %34
  %37 = call fastcc ptr @_(ptr noundef nonnull @.str.38)
  call void (ptr, ...) @die_errno(ptr noundef %37, ptr noundef %1) #22
  unreachable

38:                                               ; preds = %34
  %39 = load i32, ptr %11, align 8, !tbaa !76
  %40 = trunc i32 %39 to i16
  %trunc.i.i.i = and i16 %40, -4096
  switch i16 %trunc.i.i.i, label %41 [
    i16 -32768, label %canon_mode.exit.i.i
    i16 -24576, label %canon_mode.exit.thread.i.i
    i16 16384, label %canon_mode.exit.thread28.i.i
  ]

41:                                               ; preds = %38
  br label %canon_mode.exit.thread.i.i

canon_mode.exit.i.i:                              ; preds = %38
  %42 = and i32 %39, 64
  %.not.i.i.i = icmp eq i32 %42, 0
  %43 = select i1 %.not.i.i.i, i32 33188, i32 33261
  br label %canon_mode.exit.thread.i.i

canon_mode.exit.thread28.i.i:                     ; preds = %38
  %44 = call i64 @strlen(ptr noundef nonnull dereferenceable(1) %1) #20
  %45 = trunc i64 %44 to i32
  %46 = call i32 @index_name_pos(ptr noundef %0, ptr noundef nonnull %1, i32 noundef %45) #21
  %47 = icmp sgt i32 %46, -1
  br i1 %47, label %48, label %57

48:                                               ; preds = %canon_mode.exit.thread28.i.i
  %49 = load ptr, ptr %0, align 8, !tbaa !79
  %50 = zext nneg i32 %46 to i64
  %51 = getelementptr inbounds nuw ptr, ptr %49, i64 %50
  %52 = load ptr, ptr %51, align 8, !tbaa !93
  %53 = getelementptr inbounds nuw i8, ptr %52, i64 52
  %54 = load i32, ptr %53, align 4, !tbaa !22
  %55 = and i32 %54, 61440
  %56 = icmp eq i32 %55, 57344
  %spec.select.i.i = select i1 %56, i32 %54, i32 16384
  br label %canon_mode.exit.thread.i.i

57:                                               ; preds = %canon_mode.exit.thread28.i.i
  %58 = load ptr, ptr @the_repository, align 8, !tbaa !95
  %59 = call i32 @repo_resolve_gitlink_ref(ptr noundef %58, ptr noundef nonnull %1, ptr noundef nonnull @.str.39, ptr noundef nonnull %4) #21
  %60 = icmp eq i32 %59, 0
  %spec.select25.i.i = select i1 %60, i32 57344, i32 16384
  br label %canon_mode.exit.thread.i.i

canon_mode.exit.thread.i.i:                       ; preds = %57, %48, %canon_mode.exit.i.i, %41, %38
  %.021.i.i = phi i32 [ %43, %canon_mode.exit.i.i ], [ %spec.select.i.i, %48 ], [ %spec.select25.i.i, %57 ], [ 40960, %38 ], [ 57344, %41 ]
  call void @llvm.lifetime.end.p0(i64 144, ptr nonnull %5) #21
  call void @llvm.lifetime.end.p0(i64 36, ptr nonnull %4) #21
  br label %72

61:                                               ; preds = %31
  %62 = call i64 @strlen(ptr noundef nonnull dereferenceable(1) %1) #20
  %63 = trunc i64 %62 to i32
  %64 = call i32 @index_name_pos(ptr noundef %0, ptr noundef nonnull %1, i32 noundef %63) #21
  %65 = icmp sgt i32 %64, -1
  br i1 %65, label %.thread.i.i, label %compute_builtin_attr.exit

.thread.i.i:                                      ; preds = %61
  %66 = load ptr, ptr %0, align 8, !tbaa !79
  %67 = zext nneg i32 %64 to i64
  %68 = getelementptr inbounds nuw ptr, ptr %66, i64 %67
  %69 = load ptr, ptr %68, align 8, !tbaa !93
  %70 = getelementptr inbounds nuw i8, ptr %69, i64 52
  %71 = load i32, ptr %70, align 4, !tbaa !22
  br label %72

72:                                               ; preds = %.thread.i.i, %canon_mode.exit.thread.i.i
  %.2.i.i = phi i32 [ %.021.i.i, %canon_mode.exit.thread.i.i ], [ %71, %.thread.i.i ]
  br label %74

73:                                               ; preds = %74
  %indvars.iv.next.i.i.i = add nuw nsw i64 %indvars.iv.i.i.i, 1
  %exitcond.not.i.i.i = icmp eq i64 %indvars.iv.next.i.i.i, 5
  br i1 %exitcond.not.i.i.i, label %82, label %74, !llvm.loop !96

74:                                               ; preds = %73, %72
  %indvars.iv.i.i.i = phi i64 [ 0, %72 ], [ %indvars.iv.next.i.i.i, %73 ]
  %75 = getelementptr inbounds nuw [5 x %struct.anon], ptr @interned_mode_string.mode_string, i64 0, i64 %indvars.iv.i.i.i
  %76 = load i32, ptr %75, align 4, !tbaa !97
  %.not.i26.i.i = icmp eq i32 %76, %.2.i.i
  br i1 %.not.i26.i.i, label %77, label %73

77:                                               ; preds = %74
  %78 = getelementptr inbounds nuw i8, ptr %75, i64 4
  %79 = load i8, ptr %78, align 4, !tbaa !4
  %.not11.i.i.i = icmp eq i8 %79, 0
  br i1 %.not11.i.i.i, label %80, label %compute_builtin_attr.exit

80:                                               ; preds = %77
  %81 = call i32 (ptr, i64, ptr, ...) @snprintf(ptr noundef nonnull dereferenceable(1) %78, i64 noundef 7, ptr noundef nonnull @.str.40, i32 noundef %.2.i.i) #21
  br label %compute_builtin_attr.exit

82:                                               ; preds = %73
  call void (ptr, i32, ptr, ...) @BUG_fl(ptr noundef nonnull @.str.4, i32 noundef 1248, ptr noundef nonnull @.str.41, i32 noundef %.2.i.i) #22
  unreachable

compute_builtin_attr.exit:                        ; preds = %80, %77, %61, %28, %12
  %.0 = phi ptr [ %21, %12 ], [ null, %28 ], [ null, %61 ], [ %78, %77 ], [ %78, %80 ]
  %83 = load ptr, ptr %9, align 8, !tbaa !51
  %84 = getelementptr inbounds nuw %struct.attr_check_item, ptr %83, i64 %indvars.iv, i32 1
  store ptr %.0, ptr %84, align 8, !tbaa !99
  %indvars.iv.next = add nuw nsw i64 %indvars.iv, 1
  %85 = load i32, ptr %2, align 8, !tbaa !45
  %86 = sext i32 %85 to i64
  %87 = icmp slt i64 %indvars.iv.next, %86
  br i1 %87, label %12, label %._crit_edge, !llvm.loop !100

._crit_edge:                                      ; preds = %compute_builtin_attr.exit, %3
  ret void
}